; Function Attrs: mustprogress uwtable
define void @_ZN6GLArea10showRasterEb(ptr noundef nonnull align 8 dereferenceable(1676) %0, i1 noundef zeroext %1) local_unnamed_addr #9 align 2 personality ptr @__gxx_personality_v0 {
  %3 = alloca %class.QString, align 8
  %4 = alloca %class.QDomDocument, align 8
  %5 = alloca %class.QString, align 8
  tail call void @_ZN9QGLWidget11makeCurrentEv(ptr noundef nonnull align 8 dereferenceable(48) %0)
  %6 = getelementptr inbounds i8, ptr %0, i64 1640
  %7 = load i8, ptr %6, align 8
  %8 = and i8 %7, 1
  %.not = icmp eq i8 %8, 0
  br i1 %.not, label %9, label %23

9:                                                ; preds = %2
  call void @_ZN6GLArea10viewToTextEv(ptr dead_on_unwind nonnull writable sret(%class.QString) align 8 %3, ptr noundef nonnull align 8 dereferenceable(1676) %0)
  %10 = getelementptr inbounds i8, ptr %0, i64 1664
  %11 = load ptr, ptr %10, align 8
  %12 = load ptr, ptr %3, align 8
  store ptr %12, ptr %10, align 8
  store ptr %11, ptr %3, align 8
  %13 = load atomic i32, ptr %11 monotonic, align 4
  switch i32 %13, label %_ZN9QtPrivate8RefCount5derefEv.exit.i [
    i32 0, label %_ZN9QtPrivate8RefCount5derefEv.exit.thread2.i
    i32 -1, label %_ZN7QStringD2Ev.exit
  ]

_ZN9QtPrivate8RefCount5derefEv.exit.i:            ; preds = %9
  %14 = atomicrmw sub ptr %11, i32 1 seq_cst, align 4
  %.not.i = icmp eq i32 %14, 1
  br i1 %.not.i, label %_ZN9QtPrivate8RefCount5derefEv.exit._ZN9QtPrivate8RefCount5derefEv.exit.thread2_crit_edge.i, label %_ZN7QStringD2Ev.exit

_ZN9QtPrivate8RefCount5derefEv.exit._ZN9QtPrivate8RefCount5derefEv.exit.thread2_crit_edge.i: ; preds = %_ZN9QtPrivate8RefCount5derefEv.exit.i
  %.pre.i = load ptr, ptr %3, align 8
  br label %_ZN9QtPrivate8RefCount5derefEv.exit.thread2.i

_ZN9QtPrivate8RefCount5derefEv.exit.thread2.i:    ; preds = %_ZN9QtPrivate8RefCount5derefEv.exit._ZN9QtPrivate8RefCount5derefEv.exit.thread2_crit_edge.i, %9
  %15 = phi ptr [ %.pre.i, %_ZN9QtPrivate8RefCount5derefEv.exit._ZN9QtPrivate8RefCount5derefEv.exit.thread2_crit_edge.i ], [ %11, %9 ]
  call void @_ZN10QArrayData10deallocateEPS_mm(ptr noundef %15, i64 noundef 2, i64 noundef 8) #32
  br label %_ZN7QStringD2Ev.exit

_ZN7QStringD2Ev.exit:                             ; preds = %9, %_ZN9QtPrivate8RefCount5derefEv.exit.i, %_ZN9QtPrivate8RefCount5derefEv.exit.thread2.i
  store i8 1, ptr %6, align 8
  %16 = getelementptr inbounds i8, ptr %0, i64 56
  %17 = load ptr, ptr %16, align 8
  %18 = icmp eq ptr %17, null
  %19 = getelementptr inbounds i8, ptr %17, i64 48
  %spec.select.i = select i1 %18, ptr null, ptr %19
  %20 = call noundef ptr @_ZN12MeshDocument2rmEv(ptr noundef nonnull align 8 dereferenceable(192) %spec.select.i)
  %21 = getelementptr inbounds i8, ptr %20, i64 156
  %22 = load i32, ptr %21, align 4
  call void @_ZN6GLArea10loadRasterEi(ptr noundef nonnull align 8 dereferenceable(1676) %0, i32 noundef %22)
  br label %40

23:                                               ; preds = %2
  store i8 0, ptr %6, align 8
  %24 = tail call noundef ptr @_ZN7QString16fromAscii_helperEPKci(ptr noundef nonnull @.str.111, i32 noundef 9)
  store ptr %24, ptr %5, align 8
  invoke void @_ZN12QDomDocumentC1ERK7QString(ptr noundef nonnull align 8 dereferenceable(8) %4, ptr noundef nonnull align 8 dereferenceable(8) %5)
          to label %25 unwind label %34

25:                                               ; preds = %23
  %26 = load ptr, ptr %5, align 8
  %27 = load atomic i32, ptr %26 monotonic, align 4
  switch i32 %27, label %_ZN9QtPrivate8RefCount5derefEv.exit.i6 [
    i32 0, label %_ZN9QtPrivate8RefCount5derefEv.exit.thread2.i5
    i32 -1, label %_ZN7QStringD2Ev.exit10
  ]

_ZN9QtPrivate8RefCount5derefEv.exit.i6:           ; preds = %25
  %28 = atomicrmw sub ptr %26, i32 1 seq_cst, align 4
  %.not.i7 = icmp eq i32 %28, 1
  br i1 %.not.i7, label %_ZN9QtPrivate8RefCount5derefEv.exit._ZN9QtPrivate8RefCount5derefEv.exit.thread2_crit_edge.i8, label %_ZN7QStringD2Ev.exit10

_ZN9QtPrivate8RefCount5derefEv.exit._ZN9QtPrivate8RefCount5derefEv.exit.thread2_crit_edge.i8: ; preds = %_ZN9QtPrivate8RefCount5derefEv.exit.i6
  %.pre.i9 = load ptr, ptr %5, align 8
  br label %_ZN9QtPrivate8RefCount5derefEv.exit.thread2.i5

_ZN9QtPrivate8RefCount5derefEv.exit.thread2.i5:   ; preds = %_ZN9QtPrivate8RefCount5derefEv.exit._ZN9QtPrivate8RefCount5derefEv.exit.thread2_crit_edge.i8, %25
  %29 = phi ptr [ %.pre.i9, %_ZN9QtPrivate8RefCount5derefEv.exit._ZN9QtPrivate8RefCount5derefEv.exit.thread2_crit_edge.i8 ], [ %26, %25 ]
  call void @_ZN10QArrayData10deallocateEPS_mm(ptr noundef %29, i64 noundef 2, i64 noundef 8) #32
  br label %_ZN7QStringD2Ev.exit10

_ZN7QStringD2Ev.exit10:                           ; preds = %25, %_ZN9QtPrivate8RefCount5derefEv.exit.i6, %_ZN9QtPrivate8RefCount5derefEv.exit.thread2.i5
  %30 = getelementptr inbounds i8, ptr %0, i64 1664
  %31 = invoke noundef zeroext i1 @_ZN12QDomDocument10setContentERK7QStringPS0_PiS4_(ptr noundef nonnull align 8 dereferenceable(8) %4, ptr noundef nonnull align 8 dereferenceable(8) %30, ptr noundef null, ptr noundef null, ptr noundef null)
          to label %32 unwind label %36

32:                                               ; preds = %_ZN7QStringD2Ev.exit10
  br i1 %1, label %33, label %38

33:                                               ; preds = %32
  invoke void @_ZN6GLArea25loadViewFromViewStateFileERK12QDomDocument(ptr noundef nonnull align 8 dereferenceable(1676) %0, ptr noundef nonnull align 8 dereferenceable(8) %4)
          to label %39 unwind label %36

34:                                               ; preds = %23
  %35 = landingpad { ptr, i32 }
          cleanup
  call void @_ZN7QStringD2Ev(ptr noundef nonnull align 8 dereferenceable(8) %5) #32
  br label %41

36:                                               ; preds = %38, %33, %_ZN7QStringD2Ev.exit10
  %37 = landingpad { ptr, i32 }
          cleanup
  call void @_ZN12QDomDocumentD1Ev(ptr noundef nonnull align 8 dereferenceable(8) %4) #32
  br label %41

38:                                               ; preds = %32
  invoke void @_ZN7QWidget6updateEv(ptr noundef nonnull align 8 dereferenceable(48) %0)
          to label %39 unwind label %36

39:                                               ; preds = %38, %33
  call void @_ZN12QDomDocumentD1Ev(ptr noundef nonnull align 8 dereferenceable(8) %4) #32
  br label %40

40:                                               ; preds = %39, %_ZN7QStringD2Ev.exit
  ret void

41:                                               ; preds = %36, %34
  %.pn = phi { ptr, i32 } [ %37, %36 ], [ %35, %34 ]
  resume { ptr, i32 } %.pn
}